; ModuleID = '53/150.c'
source_filename = "53/150.c"
target datalayout = "e-m:e-p270:32:32-p271:32:32-p272:64:64-i64:64-f80:128-n8:16:32:64-S128"
target triple = "x86_64-pc-linux-gnu"

@.str = private unnamed_addr constant [3 x i8] c"%d\00", align 1
@.str.1 = private unnamed_addr constant [4 x i8] c"%d,\00", align 1

; Function Attrs: noinline nounwind uwtable
define dso_local void @main() #0 {
  %1 = alloca i32, align 4
  %2 = alloca i32, align 4
  %3 = alloca i32, align 4
  %4 = alloca i32, align 4
  %5 = alloca [100 x i32], align 16
  %6 = alloca [100 x i32], align 16
  %7 = alloca i32*, align 8
  %8 = alloca i32*, align 8
  store i32 1, i32* %3, align 4
  %9 = getelementptr inbounds [100 x i32], [100 x i32]* %5, i64 0, i64 0
  store i32* %9, i32** %7, align 8
  %10 = getelementptr inbounds [100 x i32], [100 x i32]* %6, i64 0, i64 0
  store i32* %10, i32** %8, align 8
  %11 = call i32 (i8*, ...) @__isoc99_scanf(i8* getelementptr inbounds ([3 x i8], [3 x i8]* @.str, i64 0, i64 0), i32* %4)
  store i32 0, i32* %1, align 4
  br label %12

12:                                               ; preds = %21, %0
  %13 = load i32, i32* %1, align 4
  %14 = load i32, i32* %4, align 4
  %15 = icmp slt i32 %13, %14
  br i1 %15, label %16, label %24

16:                                               ; preds = %12
  %17 = load i32, i32* %1, align 4
  %18 = sext i32 %17 to i64
  %19 = getelementptr inbounds [100 x i32], [100 x i32]* %5, i64 0, i64 %18
  %20 = call i32 (i8*, ...) @__isoc99_scanf(i8* getelementptr inbounds ([3 x i8], [3 x i8]* @.str, i64 0, i64 0), i32* %19)
  br label %21

21:                                               ; preds = %16
  %22 = load i32, i32* %1, align 4
  %23 = add nsw i32 %22, 1
  store i32 %23, i32* %1, align 4
  br label %12

24:                                               ; preds = %12
  %25 = load i32*, i32** %7, align 8
  %26 = load i32, i32* %25, align 4
  %27 = load i32*, i32** %8, align 8
  store i32 %26, i32* %27, align 4
  store i32 1, i32* %1, align 4
  %28 = load i32*, i32** %7, align 8
  %29 = getelementptr inbounds i32, i32* %28, i64 1
  store i32* %29, i32** %7, align 8
  br label %30

30:                                               ; preds = %65, %24
  %31 = load i32, i32* %1, align 4
  %32 = load i32, i32* %4, align 4
  %33 = icmp slt i32 %31, %32
  br i1 %33, label %34, label %70

34:                                               ; preds = %30
  %35 = getelementptr inbounds [100 x i32], [100 x i32]* %6, i64 0, i64 0
  store i32* %35, i32** %8, align 8
  store i32 0, i32* %2, align 4
  br label %36

36:                                               ; preds = %61, %34
  %37 = load i32, i32* %2, align 4
  %38 = load i32, i32* %3, align 4
  %39 = icmp slt i32 %37, %38
  br i1 %39, label %40, label %64

40:                                               ; preds = %36
  %41 = load i32*, i32** %8, align 8
  %42 = load i32, i32* %41, align 4
  %43 = load i32*, i32** %7, align 8
  %44 = load i32, i32* %43, align 4
  %45 = icmp eq i32 %42, %44
  br i1 %45, label %46, label %47

46:                                               ; preds = %40
  br label %64

47:                                               ; preds = %40
  %48 = load i32*, i32** %8, align 8
  %49 = getelementptr inbounds i32, i32* %48, i32 1
  store i32* %49, i32** %8, align 8
  %50 = load i32, i32* %2, align 4
  %51 = load i32, i32* %3, align 4
  %52 = sub nsw i32 %51, 1
  %53 = icmp eq i32 %50, %52
  br i1 %53, label %54, label %60

54:                                               ; preds = %47
  %55 = load i32*, i32** %7, align 8
  %56 = load i32, i32* %55, align 4
  %57 = load i32*, i32** %8, align 8
  store i32 %56, i32* %57, align 4
  %58 = load i32, i32* %3, align 4
  %59 = add nsw i32 %58, 1
  store i32 %59, i32* %3, align 4
  br label %60

60:                                               ; preds = %54, %47
  br label %61

61:                                               ; preds = %60
  %62 = load i32, i32* %2, align 4
  %63 = add nsw i32 %62, 1
  store i32 %63, i32* %2, align 4
  br label %36

64:                                               ; preds = %46, %36
  br label %65

65:                                               ; preds = %64
  %66 = load i32, i32* %1, align 4
  %67 = add nsw i32 %66, 1
  store i32 %67, i32* %1, align 4
  %68 = load i32*, i32** %7, align 8
  %69 = getelementptr inbounds i32, i32* %68, i32 1
  store i32* %69, i32** %7, align 8
  br label %30

70:                                               ; preds = %30
  %71 = getelementptr inbounds [100 x i32], [100 x i32]* %6, i64 0, i64 0
  store i32* %71, i32** %8, align 8
  store i32 0, i32* %1, align 4
  br label %72

72:                                               ; preds = %84, %70
  %73 = load i32, i32* %1, align 4
  %74 = load i32, i32* %3, align 4
  %75 = sub nsw i32 %74, 1
  %76 = icmp slt i32 %73, %75
  br i1 %76, label %77, label %87

77:                                               ; preds = %72
  %78 = load i32*, i32** %8, align 8
  %79 = load i32, i32* %1, align 4
  %80 = sext i32 %79 to i64
  %81 = getelementptr inbounds i32, i32* %78, i64 %80
  %82 = load i32, i32* %81, align 4
  %83 = call i32 (i8*, ...) @printf(i8* getelementptr inbounds ([4 x i8], [4 x i8]* @.str.1, i64 0, i64 0), i32 %82)
  br label %84

84:                                               ; preds = %77
  %85 = load i32, i32* %1, align 4
  %86 = add nsw i32 %85, 1
  store i32 %86, i32* %1, align 4
  br label %72

87:                                               ; preds = %72
  %88 = load i32*, i32** %8, align 8
  %89 = load i32, i32* %3, align 4
  %90 = sext i32 %89 to i64
  %91 = getelementptr inbounds i32, i32* %88, i64 %90
  %92 = getelementptr inbounds i32, i32* %91, i64 -1
  %93 = load i32, i32* %92, align 4
  %94 = call i32 (i8*, ...) @printf(i8* getelementptr inbounds ([3 x i8], [3 x i8]* @.str, i64 0, i64 0), i32 %93)
  ret void
}

declare dso_local i32 @__isoc99_scanf(i8*, ...) #1

declare dso_local i32 @printf(i8*, ...) #1


!llvm.module.flags = !{!0}
!llvm.ident = !{!1}

!0 = !{i32 1, !"wchar_size", i32 4}
!1 = !{!"clang version 10.0.0-4ubuntu1 "}
